; Function Attrs: mustprogress nounwind uwtable
define void @_ZN3nix10LocalStoreD1Ev(ptr noundef nonnull align 8 dereferenceable(504) %0) unnamed_addr #6 align 2 {
  tail call void @_ZN3nix10LocalStoreD2Ev(ptr noundef nonnull align 8 dereferenceable(504) %0, ptr noundef nonnull @_ZTTN3nix10LocalStoreE) #33
  %2 = getelementptr inbounds i8, ptr %0, i64 2832
  tail call void @_ZN3nix5StoreD2Ev(ptr noundef nonnull align 8 dereferenceable(264) %2, ptr noundef nonnull getelementptr inbounds ([35 x ptr], ptr @_ZTTN3nix10LocalStoreE, i64 0, i64 27)) #33
  %3 = getelementptr inbounds i8, ptr %0, i64 504
  store ptr getelementptr inbounds ({ [11 x ptr], [6 x ptr], [23 x ptr] }, ptr @_ZTCN3nix10LocalStoreE504_NS_16LocalStoreConfigE, i64 0, i32 0, i64 7), ptr %3, align 8
  %4 = getelementptr inbounds i8, ptr %0, i64 800
  store ptr getelementptr inbounds ({ [11 x ptr], [6 x ptr], [23 x ptr] }, ptr @_ZTCN3nix10LocalStoreE504_NS_16LocalStoreConfigE, i64 0, i32 1, i64 4), ptr %4, align 8
  %5 = getelementptr inbounds i8, ptr %0, i64 1656
  store ptr getelementptr inbounds ({ [11 x ptr], [6 x ptr], [23 x ptr] }, ptr @_ZTCN3nix10LocalStoreE504_NS_16LocalStoreConfigE, i64 0, i32 2, i64 12), ptr %5, align 8
  %6 = getelementptr inbounds i8, ptr %0, i64 656
  tail call void @_ZN3nix15AbstractSettingD2Ev(ptr noundef nonnull align 8 dereferenceable(136) %6) #33
  %7 = getelementptr inbounds i8, ptr %0, i64 512
  tail call void @_ZN3nix15AbstractSettingD2Ev(ptr noundef nonnull align 8 dereferenceable(136) %7) #33
  tail call void @_ZN3nix18LocalFSStoreConfigD2Ev(ptr noundef nonnull align 8 dereferenceable(856) %4, ptr noundef nonnull getelementptr inbounds ([35 x ptr], ptr @_ZTTN3nix10LocalStoreE, i64 0, i64 12)) #33
  tail call void @_ZN3nix11StoreConfigD2Ev(ptr noundef nonnull align 8 dereferenceable(1176) %5) #33
  ret void
}